target datalayout = "e-m:e-p270:32:32-p271:32:32-p272:64:64-i64:64-i128:128-f80:128-n8:16:32:64-S128"
target triple = "x86_64-pc-linux-gnu"

%struct.H5C_t = type { i8, ptr, ptr, i32, ptr, i64, i64, ptr, i8, ptr, i8, i8, i32, i64, [6 x i32], [6 x i64], i64, [6 x i64], i64, [6 x i64], [65536 x ptr], i32, i64, ptr, ptr, i64, ptr, ptr, i8, i8, i32, i64, [6 x i32], [6 x i64], ptr, i32, ptr, i8, i32, i32, i64, ptr, ptr, i32, i64, ptr, ptr, i32, i64, ptr, ptr, i8, i8, i64, i8, i8, i8, i8, i8, i8, %struct.H5C_auto_size_ctl_t, i32, [10 x i8], [11 x i32], i32, i32, i32, [10 x %struct.H5C_cache_entry_t], i64, i64, %struct.H5C_cache_image_ctl_t, i8, i8, i8, i8, i64, i64, i64, i64, i64, i64, i64, i32, ptr, ptr, i8, i8, [32 x i8] }
%struct.H5C_auto_size_ctl_t = type { i32, ptr, i8, i64, double, i64, i64, i64, i32, double, double, i8, i64, i32, double, double, i32, double, double, i8, i64, i32, i8, double }
%struct.H5C_cache_entry_t = type { ptr, i64, i64, ptr, i8, ptr, i8, i8, i8, i8, i32, i8, i8, i8, i8, i8, i32, ptr, i32, i32, i32, i32, i32, i8, i8, ptr, ptr, ptr, ptr, ptr, ptr, i8, i32, i8, i64, ptr, i64, i64, i32, i8, i32, i32, i8, ptr, ptr, ptr }
%struct.H5C_cache_image_ctl_t = type { i32, i8, i8, i32, i32 }

@.str.1 = private unnamed_addr constant [97 x i8] c"generated/home/dtcxzyw/WorkSpace/Projects/compilers/llvm-opt-benchmark/bench/hdf5/hdf5/src/H5C.c\00", align 1
@H5E_CACHE_g = external global i64, align 8
@H5E_SYSTEM_g = external global i64, align 8
@H5E_BADVALUE_g = external global i64, align 8
@.str.32 = private unnamed_addr constant [23 x i8] c"Bad cache_ptr on entry\00", align 1
@__func__.H5C_set_slist_enabled = private unnamed_addr constant [22 x i8] c"H5C_set_slist_enabled\00", align 1
@.str.34 = private unnamed_addr constant [23 x i8] c"slist already enabled?\00", align 1
@.str.35 = private unnamed_addr constant [17 x i8] c"slist not empty?\00", align 1
@.str.36 = private unnamed_addr constant [32 x i8] c"can't insert entry in skip list\00", align 1
@.str.37 = private unnamed_addr constant [24 x i8] c"slist already disabled?\00", align 1

; Function Attrs: nounwind uwtable
define i32 @H5C_set_slist_enabled(ptr noundef %0, i1 noundef zeroext %1, i1 noundef zeroext %2) #0 {
  %4 = alloca ptr, align 8
  %5 = alloca i8, align 1
  %6 = alloca i8, align 1
  %7 = alloca ptr, align 8
  %8 = alloca i32, align 4
  %9 = alloca i8, align 1
  store ptr %0, ptr %4, align 8
  %10 = zext i1 %1 to i8
  store i8 %10, ptr %5, align 1
  %11 = zext i1 %2 to i8
  store i8 %11, ptr %6, align 1
  store i32 0, ptr %8, align 4
  store i8 0, ptr %9, align 1
  %12 = load ptr, ptr %4, align 8
  %13 = icmp eq ptr %12, null
  br i1 %13, label %14, label %29

14:                                               ; preds = %3
  br label %15

15:                                               ; preds = %14
  br label %16

16:                                               ; preds = %15
  br label %17

17:                                               ; preds = %16
  %18 = load i64, ptr @H5E_CACHE_g, align 8
  %19 = load i64, ptr @H5E_SYSTEM_g, align 8
  %20 = call i32 (ptr, ptr, i32, i64, i64, ptr, ...) @H5E_printf_stack(ptr noundef @.str.1, ptr noundef @__func__.H5C_set_slist_enabled, i32 noundef 1079, i64 noundef %18, i64 noundef %19, ptr noundef @.str.32)
  br label %21

21:                                               ; preds = %17
  store i8 1, ptr %9, align 1
  %22 = load i8, ptr %9, align 1
  %23 = trunc i8 %22 to i1
  %24 = zext i1 %23 to i8
  store i8 %24, ptr %9, align 1
  br label %25

25:                                               ; preds = %21
  br label %26

26:                                               ; preds = %25
  store i32 -1, ptr %8, align 4
  br label %219

27:                                               ; No predecessors!
  br label %28

28:                                               ; preds = %27
  br label %29

29:                                               ; preds = %28, %3
  %30 = load i8, ptr %5, align 1
  %31 = trunc i8 %30 to i1
  br i1 %31, label %32, label %170

32:                                               ; preds = %29
  %33 = load ptr, ptr %4, align 8
  %34 = getelementptr inbounds %struct.H5C_t, ptr %33, i32 0, i32 28
  %35 = load i8, ptr %34, align 8
  %36 = trunc i8 %35 to i1
  br i1 %36, label %37, label %52

37:                                               ; preds = %32
  br label %38

38:                                               ; preds = %37
  br label %39

39:                                               ; preds = %38
  br label %40

40:                                               ; preds = %39
  %41 = load i64, ptr @H5E_CACHE_g, align 8
  %42 = load i64, ptr @H5E_SYSTEM_g, align 8
  %43 = call i32 (ptr, ptr, i32, i64, i64, ptr, ...) @H5E_printf_stack(ptr noundef @.str.1, ptr noundef @__func__.H5C_set_slist_enabled, i32 noundef 1083, i64 noundef %41, i64 noundef %42, ptr noundef @.str.34)
  br label %44

44:                                               ; preds = %40
  store i8 1, ptr %9, align 1
  %45 = load i8, ptr %9, align 1
  %46 = trunc i8 %45 to i1
  %47 = zext i1 %46 to i8
  store i8 %47, ptr %9, align 1
  br label %48

48:                                               ; preds = %44
  br label %49

49:                                               ; preds = %48
  store i32 -1, ptr %8, align 4
  br label %219

50:                                               ; No predecessors!
  br label %51

51:                                               ; preds = %50
  br label %52

52:                                               ; preds = %51, %32
  %53 = load ptr, ptr %4, align 8
  %54 = getelementptr inbounds %struct.H5C_t, ptr %53, i32 0, i32 30
  %55 = load i32, ptr %54, align 4
  %56 = icmp ne i32 %55, 0
  br i1 %56, label %62, label %57

57:                                               ; preds = %52
  %58 = load ptr, ptr %4, align 8
  %59 = getelementptr inbounds %struct.H5C_t, ptr %58, i32 0, i32 31
  %60 = load i64, ptr %59, align 8
  %61 = icmp ne i64 %60, 0
  br i1 %61, label %62, label %77

62:                                               ; preds = %57, %52
  br label %63

63:                                               ; preds = %62
  br label %64

64:                                               ; preds = %63
  br label %65

65:                                               ; preds = %64
  %66 = load i64, ptr @H5E_CACHE_g, align 8
  %67 = load i64, ptr @H5E_SYSTEM_g, align 8
  %68 = call i32 (ptr, ptr, i32, i64, i64, ptr, ...) @H5E_printf_stack(ptr noundef @.str.1, ptr noundef @__func__.H5C_set_slist_enabled, i32 noundef 1085, i64 noundef %66, i64 noundef %67, ptr noundef @.str.35)
  br label %69

69:                                               ; preds = %65
  store i8 1, ptr %9, align 1
  %70 = load i8, ptr %9, align 1
  %71 = trunc i8 %70 to i1
  %72 = zext i1 %71 to i8
  store i8 %72, ptr %9, align 1
  br label %73

73:                                               ; preds = %69
  br label %74

74:                                               ; preds = %73
  store i32 -1, ptr %8, align 4
  br label %219

75:                                               ; No predecessors!
  br label %76

76:                                               ; preds = %75
  br label %77

77:                                               ; preds = %76, %57
  %78 = load ptr, ptr %4, align 8
  %79 = getelementptr inbounds %struct.H5C_t, ptr %78, i32 0, i32 28
  store i8 1, ptr %79, align 8
  %80 = load i8, ptr %6, align 1
  %81 = trunc i8 %80 to i1
  br i1 %81, label %82, label %169

82:                                               ; preds = %77
  %83 = load ptr, ptr %4, align 8
  %84 = getelementptr inbounds %struct.H5C_t, ptr %83, i32 0, i32 23
  %85 = load ptr, ptr %84, align 8
  store ptr %85, ptr %7, align 8
  br label %86

86:                                               ; preds = %164, %82
  %87 = load ptr, ptr %7, align 8
  %88 = icmp ne ptr %87, null
  br i1 %88, label %89, label %168

89:                                               ; preds = %86
  %90 = load ptr, ptr %7, align 8
  %91 = getelementptr inbounds %struct.H5C_cache_entry_t, ptr %90, i32 0, i32 6
  %92 = load i8, ptr %91, align 8
  %93 = trunc i8 %92 to i1
  br i1 %93, label %94, label %164

94:                                               ; preds = %89
  br label %95

95:                                               ; preds = %94
  %96 = load ptr, ptr %4, align 8
  %97 = getelementptr inbounds %struct.H5C_t, ptr %96, i32 0, i32 28
  %98 = load i8, ptr %97, align 8
  %99 = trunc i8 %98 to i1
  br i1 %99, label %100, label %161

100:                                              ; preds = %95
  %101 = load ptr, ptr %4, align 8
  %102 = getelementptr inbounds %struct.H5C_t, ptr %101, i32 0, i32 34
  %103 = load ptr, ptr %102, align 8
  %104 = load ptr, ptr %7, align 8
  %105 = load ptr, ptr %7, align 8
  %106 = getelementptr inbounds %struct.H5C_cache_entry_t, ptr %105, i32 0, i32 1
  %107 = call i32 @H5SL_insert(ptr noundef %103, ptr noundef %104, ptr noundef %106)
  %108 = icmp slt i32 %107, 0
  br i1 %108, label %109, label %124

109:                                              ; preds = %100
  br label %110

110:                                              ; preds = %109
  br label %111

111:                                              ; preds = %110
  br label %112

112:                                              ; preds = %111
  %113 = load i64, ptr @H5E_CACHE_g, align 8
  %114 = load i64, ptr @H5E_BADVALUE_g, align 8
  %115 = call i32 (ptr, ptr, i32, i64, i64, ptr, ...) @H5E_printf_stack(ptr noundef @.str.1, ptr noundef @__func__.H5C_set_slist_enabled, i32 noundef 1097, i64 noundef %113, i64 noundef %114, ptr noundef @.str.36)
  br label %116

116:                                              ; preds = %112
  store i8 1, ptr %9, align 1
  %117 = load i8, ptr %9, align 1
  %118 = trunc i8 %117 to i1
  %119 = zext i1 %118 to i8
  store i8 %119, ptr %9, align 1
  br label %120

120:                                              ; preds = %116
  br label %121

121:                                              ; preds = %120
  store i32 -1, ptr %8, align 4
  br label %219

122:                                              ; No predecessors!
  br label %123

123:                                              ; preds = %122
  br label %124

124:                                              ; preds = %123, %100
  %125 = load ptr, ptr %7, align 8
  %126 = getelementptr inbounds %struct.H5C_cache_entry_t, ptr %125, i32 0, i32 12
  store i8 1, ptr %126, align 1
  %127 = load ptr, ptr %4, align 8
  %128 = getelementptr inbounds %struct.H5C_t, ptr %127, i32 0, i32 29
  store i8 1, ptr %128, align 1
  %129 = load ptr, ptr %4, align 8
  %130 = getelementptr inbounds %struct.H5C_t, ptr %129, i32 0, i32 30
  %131 = load i32, ptr %130, align 4
  %132 = add i32 %131, 1
  store i32 %132, ptr %130, align 4
  %133 = load ptr, ptr %7, align 8
  %134 = getelementptr inbounds %struct.H5C_cache_entry_t, ptr %133, i32 0, i32 2
  %135 = load i64, ptr %134, align 8
  %136 = load ptr, ptr %4, align 8
  %137 = getelementptr inbounds %struct.H5C_t, ptr %136, i32 0, i32 31
  %138 = load i64, ptr %137, align 8
  %139 = add i64 %138, %135
  store i64 %139, ptr %137, align 8
  %140 = load ptr, ptr %4, align 8
  %141 = getelementptr inbounds %struct.H5C_t, ptr %140, i32 0, i32 32
  %142 = load ptr, ptr %7, align 8
  %143 = getelementptr inbounds %struct.H5C_cache_entry_t, ptr %142, i32 0, i32 16
  %144 = load i32, ptr %143, align 8
  %145 = sext i32 %144 to i64
  %146 = getelementptr inbounds [6 x i32], ptr %141, i64 0, i64 %145
  %147 = load i32, ptr %146, align 4
  %148 = add i32 %147, 1
  store i32 %148, ptr %146, align 4
  %149 = load ptr, ptr %7, align 8
  %150 = getelementptr inbounds %struct.H5C_cache_entry_t, ptr %149, i32 0, i32 2
  %151 = load i64, ptr %150, align 8
  %152 = load ptr, ptr %4, align 8
  %153 = getelementptr inbounds %struct.H5C_t, ptr %152, i32 0, i32 33
  %154 = load ptr, ptr %7, align 8
  %155 = getelementptr inbounds %struct.H5C_cache_entry_t, ptr %154, i32 0, i32 16
  %156 = load i32, ptr %155, align 8
  %157 = sext i32 %156 to i64
  %158 = getelementptr inbounds [6 x i64], ptr %153, i64 0, i64 %157
  %159 = load i64, ptr %158, align 8
  %160 = add i64 %159, %151
  store i64 %160, ptr %158, align 8
  br label %162

161:                                              ; preds = %95
  br label %162

162:                                              ; preds = %161, %124
  br label %163

163:                                              ; preds = %162
  br label %164

164:                                              ; preds = %163, %89
  %165 = load ptr, ptr %7, align 8
  %166 = getelementptr inbounds %struct.H5C_cache_entry_t, ptr %165, i32 0, i32 27
  %167 = load ptr, ptr %166, align 8
  store ptr %167, ptr %7, align 8
  br label %86

168:                                              ; preds = %86
  br label %169

169:                                              ; preds = %168, %77
  br label %218

170:                                              ; preds = %29
  %171 = load ptr, ptr %4, align 8
  %172 = getelementptr inbounds %struct.H5C_t, ptr %171, i32 0, i32 28
  %173 = load i8, ptr %172, align 8
  %174 = trunc i8 %173 to i1
  br i1 %174, label %190, label %175

175:                                              ; preds = %170
  br label %176

176:                                              ; preds = %175
  br label %177

177:                                              ; preds = %176
  br label %178

178:                                              ; preds = %177
  %179 = load i64, ptr @H5E_CACHE_g, align 8
  %180 = load i64, ptr @H5E_SYSTEM_g, align 8
  %181 = call i32 (ptr, ptr, i32, i64, i64, ptr, ...) @H5E_printf_stack(ptr noundef @.str.1, ptr noundef @__func__.H5C_set_slist_enabled, i32 noundef 1112, i64 noundef %179, i64 noundef %180, ptr noundef @.str.37)
  br label %182

182:                                              ; preds = %178
  store i8 1, ptr %9, align 1
  %183 = load i8, ptr %9, align 1
  %184 = trunc i8 %183 to i1
  %185 = zext i1 %184 to i8
  store i8 %185, ptr %9, align 1
  br label %186

186:                                              ; preds = %182
  br label %187

187:                                              ; preds = %186
  store i32 -1, ptr %8, align 4
  br label %219

188:                                              ; No predecessors!
  br label %189

189:                                              ; preds = %188
  br label %190

190:                                              ; preds = %189, %170
  %191 = load ptr, ptr %4, align 8
  %192 = getelementptr inbounds %struct.H5C_t, ptr %191, i32 0, i32 30
  %193 = load i32, ptr %192, align 4
  %194 = icmp ne i32 %193, 0
  br i1 %194, label %200, label %195

195:                                              ; preds = %190
  %196 = load ptr, ptr %4, align 8
  %197 = getelementptr inbounds %struct.H5C_t, ptr %196, i32 0, i32 31
  %198 = load i64, ptr %197, align 8
  %199 = icmp ne i64 %198, 0
  br i1 %199, label %200, label %215

200:                                              ; preds = %195, %190
  br label %201

201:                                              ; preds = %200
  br label %202

202:                                              ; preds = %201
  br label %203

203:                                              ; preds = %202
  %204 = load i64, ptr @H5E_CACHE_g, align 8
  %205 = load i64, ptr @H5E_SYSTEM_g, align 8
  %206 = call i32 (ptr, ptr, i32, i64, i64, ptr, ...) @H5E_printf_stack(ptr noundef @.str.1, ptr noundef @__func__.H5C_set_slist_enabled, i32 noundef 1115, i64 noundef %204, i64 noundef %205, ptr noundef @.str.35)
  br label %207

207:                                              ; preds = %203
  store i8 1, ptr %9, align 1
  %208 = load i8, ptr %9, align 1
  %209 = trunc i8 %208 to i1
  %210 = zext i1 %209 to i8
  store i8 %210, ptr %9, align 1
  br label %211

211:                                              ; preds = %207
  br label %212

212:                                              ; preds = %211
  store i32 -1, ptr %8, align 4
  br label %219

213:                                              ; No predecessors!
  br label %214

214:                                              ; preds = %213
  br label %215

215:                                              ; preds = %214, %195
  %216 = load ptr, ptr %4, align 8
  %217 = getelementptr inbounds %struct.H5C_t, ptr %216, i32 0, i32 28
  store i8 0, ptr %217, align 8
  br label %218

218:                                              ; preds = %215, %169
  br label %219

219:                                              ; preds = %218, %212, %187, %121, %74, %49, %26
  %220 = load i32, ptr %8, align 4
  ret i32 %220
}