; Function Attrs: nounwind uwtable
define range(i32 -1, 1) i32 @H5C_set_slist_enabled(ptr noundef %0, i1 noundef zeroext %1, i1 noundef zeroext %2) local_unnamed_addr #0 {
  %4 = icmp eq ptr %0, null
  br i1 %4, label %5, label %9

5:                                                ; preds = %3
  %6 = load i64, ptr @H5E_CACHE_g, align 8
  %7 = load i64, ptr @H5E_SYSTEM_g, align 8
  %8 = tail call i32 (ptr, ptr, i32, i64, i64, ptr, ...) @H5E_printf_stack(ptr noundef nonnull @.str.1, ptr noundef nonnull @__func__.H5C_set_slist_enabled, i32 noundef 1079, i64 noundef %6, i64 noundef %7, ptr noundef nonnull @.str.32) #8
  br label %.loopexit

9:                                                ; preds = %3
  %10 = getelementptr inbounds i8, ptr %0, i64 524624
  %11 = load i8, ptr %10, align 8
  %12 = trunc i8 %11 to i1
  br i1 %1, label %13, label %73

13:                                               ; preds = %9
  br i1 %12, label %14, label %18

14:                                               ; preds = %13
  %15 = load i64, ptr @H5E_CACHE_g, align 8
  %16 = load i64, ptr @H5E_SYSTEM_g, align 8
  %17 = tail call i32 (ptr, ptr, i32, i64, i64, ptr, ...) @H5E_printf_stack(ptr noundef nonnull @.str.1, ptr noundef nonnull @__func__.H5C_set_slist_enabled, i32 noundef 1083, i64 noundef %15, i64 noundef %16, ptr noundef nonnull @.str.34) #8
  br label %.loopexit

18:                                               ; preds = %13
  %19 = getelementptr inbounds i8, ptr %0, i64 524628
  %20 = load i32, ptr %19, align 4
  %.not38 = icmp eq i32 %20, 0
  br i1 %.not38, label %21, label %24

21:                                               ; preds = %18
  %22 = getelementptr inbounds i8, ptr %0, i64 524632
  %23 = load i64, ptr %22, align 8
  %.not39 = icmp eq i64 %23, 0
  br i1 %.not39, label %28, label %24

24:                                               ; preds = %18, %21
  %25 = load i64, ptr @H5E_CACHE_g, align 8
  %26 = load i64, ptr @H5E_SYSTEM_g, align 8
  %27 = tail call i32 (ptr, ptr, i32, i64, i64, ptr, ...) @H5E_printf_stack(ptr noundef nonnull @.str.1, ptr noundef nonnull @__func__.H5C_set_slist_enabled, i32 noundef 1085, i64 noundef %25, i64 noundef %26, ptr noundef nonnull @.str.35) #8
  br label %.loopexit

28:                                               ; preds = %21
  store i8 1, ptr %10, align 8
  br i1 %2, label %29, label %.loopexit

29:                                               ; preds = %28
  %30 = getelementptr inbounds i8, ptr %0, i64 524584
  %.03541 = load ptr, ptr %30, align 8
  %.not4042 = icmp eq ptr %.03541, null
  br i1 %.not4042, label %.loopexit, label %.lr.ph

.lr.ph:                                           ; preds = %29
  %31 = getelementptr inbounds i8, ptr %0, i64 524712
  %32 = getelementptr inbounds i8, ptr %0, i64 524625
  %33 = getelementptr inbounds i8, ptr %0, i64 524640
  %34 = getelementptr inbounds i8, ptr %0, i64 524664
  br label %35

35:                                               ; preds = %.lr.ph, %71
  %.03543 = phi ptr [ %.03541, %.lr.ph ], [ %.035, %71 ]
  %36 = getelementptr inbounds i8, ptr %.03543, i64 48
  %37 = load i8, ptr %36, align 8
  %38 = trunc i8 %37 to i1
  br i1 %38, label %39, label %71

39:                                               ; preds = %35
  %40 = load i8, ptr %10, align 8
  %41 = trunc i8 %40 to i1
  br i1 %41, label %42, label %71

42:                                               ; preds = %39
  %43 = load ptr, ptr %31, align 8
  %44 = getelementptr inbounds i8, ptr %.03543, i64 8
  %45 = tail call i32 @H5SL_insert(ptr noundef %43, ptr noundef nonnull %.03543, ptr noundef nonnull %44) #8
  %46 = icmp slt i32 %45, 0
  br i1 %46, label %47, label %51

47:                                               ; preds = %42
  %48 = load i64, ptr @H5E_CACHE_g, align 8
  %49 = load i64, ptr @H5E_BADVALUE_g, align 8
  %50 = tail call i32 (ptr, ptr, i32, i64, i64, ptr, ...) @H5E_printf_stack(ptr noundef nonnull @.str.1, ptr noundef nonnull @__func__.H5C_set_slist_enabled, i32 noundef 1097, i64 noundef %48, i64 noundef %49, ptr noundef nonnull @.str.36) #8
  br label %.loopexit

51:                                               ; preds = %42
  %52 = getelementptr inbounds i8, ptr %.03543, i64 57
  store i8 1, ptr %52, align 1
  store i8 1, ptr %32, align 1
  %53 = load i32, ptr %19, align 4
  %54 = add i32 %53, 1
  store i32 %54, ptr %19, align 4
  %55 = getelementptr inbounds i8, ptr %.03543, i64 16
  %56 = load i64, ptr %55, align 8
  %57 = load i64, ptr %22, align 8
  %58 = add i64 %57, %56
  store i64 %58, ptr %22, align 8
  %59 = getelementptr inbounds i8, ptr %.03543, i64 64
  %60 = load i32, ptr %59, align 8
  %61 = sext i32 %60 to i64
  %62 = getelementptr inbounds [6 x i32], ptr %33, i64 0, i64 %61
  %63 = load i32, ptr %62, align 4
  %64 = add i32 %63, 1
  store i32 %64, ptr %62, align 4
  %65 = load i64, ptr %55, align 8
  %66 = load i32, ptr %59, align 8
  %67 = sext i32 %66 to i64
  %68 = getelementptr inbounds [6 x i64], ptr %34, i64 0, i64 %67
  %69 = load i64, ptr %68, align 8
  %70 = add i64 %69, %65
  store i64 %70, ptr %68, align 8
  br label %71

71:                                               ; preds = %39, %51, %35
  %72 = getelementptr inbounds i8, ptr %.03543, i64 120
  %.035 = load ptr, ptr %72, align 8
  %.not40 = icmp eq ptr %.035, null
  br i1 %.not40, label %.loopexit, label %35

73:                                               ; preds = %9
  br i1 %12, label %78, label %74

74:                                               ; preds = %73
  %75 = load i64, ptr @H5E_CACHE_g, align 8
  %76 = load i64, ptr @H5E_SYSTEM_g, align 8
  %77 = tail call i32 (ptr, ptr, i32, i64, i64, ptr, ...) @H5E_printf_stack(ptr noundef nonnull @.str.1, ptr noundef nonnull @__func__.H5C_set_slist_enabled, i32 noundef 1112, i64 noundef %75, i64 noundef %76, ptr noundef nonnull @.str.37) #8
  br label %.loopexit

78:                                               ; preds = %73
  %79 = getelementptr inbounds i8, ptr %0, i64 524628
  %80 = load i32, ptr %79, align 4
  %.not = icmp eq i32 %80, 0
  br i1 %.not, label %81, label %84

81:                                               ; preds = %78
  %82 = getelementptr inbounds i8, ptr %0, i64 524632
  %83 = load i64, ptr %82, align 8
  %.not37 = icmp eq i64 %83, 0
  br i1 %.not37, label %88, label %84

84:                                               ; preds = %78, %81
  %85 = load i64, ptr @H5E_CACHE_g, align 8
  %86 = load i64, ptr @H5E_SYSTEM_g, align 8
  %87 = tail call i32 (ptr, ptr, i32, i64, i64, ptr, ...) @H5E_printf_stack(ptr noundef nonnull @.str.1, ptr noundef nonnull @__func__.H5C_set_slist_enabled, i32 noundef 1115, i64 noundef %85, i64 noundef %86, ptr noundef nonnull @.str.35) #8
  br label %.loopexit

88:                                               ; preds = %81
  store i8 0, ptr %10, align 8
  br label %.loopexit

.loopexit:                                        ; preds = %71, %29, %88, %28, %84, %74, %47, %24, %14, %5
  %.0 = phi i32 [ -1, %5 ], [ -1, %14 ], [ -1, %24 ], [ -1, %47 ], [ 0, %28 ], [ -1, %84 ], [ 0, %88 ], [ -1, %74 ], [ 0, %29 ], [ 0, %71 ]
  ret i32 %.0
}